target datalayout = "e-m:e-p270:32:32-p271:32:32-p272:64:64-i64:64-i128:128-f80:128-n8:16:32:64-S128"
target triple = "x86_64-pc-linux-gnu"

%struct._object = type { %union.anon, ptr }
%union.anon = type { i64 }
%struct.PyVarObject = type { %struct._object, i64 }
%struct.anon = type { i32, i32 }

@PyExc_RuntimeError = external global ptr, align 8
@_Py_NoneStruct = external global %struct._object, align 8
@S_log_open = internal global i8 0, align 1
@S_ident_o = internal global ptr null, align 8
@.str.18 = private unnamed_addr constant [9 x i8] c"s:syslog\00", align 1
@.str.19 = private unnamed_addr constant [10 x i8] c"is:syslog\00", align 1
@PyExc_TypeError = external global ptr, align 8
@.str.20 = private unnamed_addr constant [40 x i8] c"syslog.syslog requires 1 to 2 arguments\00", align 1
@.str.21 = private unnamed_addr constant [14 x i8] c"syslog.syslog\00", align 1
@.str.22 = private unnamed_addr constant [3 x i8] c"is\00", align 1
@.str.23 = private unnamed_addr constant [92 x i8] c"subinterpreter can't use syslog.syslog() until the syslog is opened by the main interpreter\00", align 1
@.str.24 = private unnamed_addr constant [3 x i8] c"%s\00", align 1

; Function Attrs: alwaysinline nounwind uwtable
define internal void @Py_INCREF(ptr noundef %0) #4 {
  %2 = alloca ptr, align 8
  %3 = alloca i32, align 4
  %4 = alloca i32, align 4
  store ptr %0, ptr %2, align 8, !tbaa !3
  call void @llvm.lifetime.start.p0(i64 4, ptr %3) #6
  %5 = load ptr, ptr %2, align 8, !tbaa !3
  %6 = getelementptr inbounds nuw %struct._object, ptr %5, i32 0, i32 0
  %7 = getelementptr inbounds nuw %struct.anon, ptr %6, i32 0, i32 0
  %8 = load i32, ptr %7, align 8, !tbaa !28
  store i32 %8, ptr %3, align 4, !tbaa !12
  %9 = load i32, ptr %3, align 4, !tbaa !12
  %10 = icmp slt i32 %9, 0
  br i1 %10, label %11, label %12

11:                                               ; preds = %1
  store i32 1, ptr %4, align 4
  br label %18

12:                                               ; preds = %1
  %13 = load i32, ptr %3, align 4, !tbaa !12
  %14 = add i32 %13, 1
  %15 = load ptr, ptr %2, align 8, !tbaa !3
  %16 = getelementptr inbounds nuw %struct._object, ptr %15, i32 0, i32 0
  %17 = getelementptr inbounds nuw %struct.anon, ptr %16, i32 0, i32 0
  store i32 %14, ptr %17, align 8, !tbaa !28
  store i32 0, ptr %4, align 4
  br label %18

18:                                               ; preds = %12, %11
  call void @llvm.lifetime.end.p0(i64 4, ptr %3) #6
  %19 = load i32, ptr %4, align 4
  switch i32 %19, label %21 [
    i32 0, label %20
    i32 1, label %20
  ]

20:                                               ; preds = %18, %18
  ret void

21:                                               ; preds = %18
  unreachable
}

; Function Attrs: inlinehint nounwind uwtable
define internal void @Py_XINCREF(ptr noundef %0) #3 {
  %2 = alloca ptr, align 8
  store ptr %0, ptr %2, align 8, !tbaa !3
  %3 = load ptr, ptr %2, align 8, !tbaa !3
  %4 = icmp ne ptr %3, null
  br i1 %4, label %5, label %7

5:                                                ; preds = %1
  %6 = load ptr, ptr %2, align 8, !tbaa !3
  call void @Py_INCREF(ptr noundef %6)
  br label %7

7:                                                ; preds = %5, %1
  ret void
}

; Function Attrs: alwaysinline nounwind uwtable
define internal i32 @_Py_IsImmortal(ptr noundef %0) #4 {
  %2 = alloca ptr, align 8
  store ptr %0, ptr %2, align 8, !tbaa !3
  %3 = load ptr, ptr %2, align 8, !tbaa !3
  %4 = getelementptr inbounds nuw %struct._object, ptr %3, i32 0, i32 0
  %5 = getelementptr inbounds nuw %struct.anon, ptr %4, i32 0, i32 0
  %6 = load i32, ptr %5, align 8, !tbaa !28
  %7 = icmp slt i32 %6, 0
  %8 = zext i1 %7 to i32
  ret i32 %8
}

; Function Attrs: inlinehint nounwind uwtable
define internal void @Py_XDECREF(ptr noundef %0) #3 {
  %2 = alloca ptr, align 8
  store ptr %0, ptr %2, align 8, !tbaa !3
  %3 = load ptr, ptr %2, align 8, !tbaa !3
  %4 = icmp ne ptr %3, null
  br i1 %4, label %5, label %7

5:                                                ; preds = %1
  %6 = load ptr, ptr %2, align 8, !tbaa !3
  call void @Py_DECREF(ptr noundef %6)
  br label %7

7:                                                ; preds = %5, %1
  ret void
}

; Function Attrs: inlinehint nounwind uwtable
define internal ptr @_Py_XNewRef(ptr noundef %0) #3 {
  %2 = alloca ptr, align 8
  store ptr %0, ptr %2, align 8, !tbaa !3
  %3 = load ptr, ptr %2, align 8, !tbaa !3
  call void @Py_XINCREF(ptr noundef %3)
  %4 = load ptr, ptr %2, align 8, !tbaa !3
  ret ptr %4
}

; Function Attrs: alwaysinline nounwind uwtable
define internal void @Py_DECREF(ptr noundef %0) #4 {
  %2 = alloca ptr, align 8
  store ptr %0, ptr %2, align 8, !tbaa !3
  %3 = load ptr, ptr %2, align 8, !tbaa !3
  %4 = call i32 @_Py_IsImmortal(ptr noundef %3)
  %5 = icmp ne i32 %4, 0
  br i1 %5, label %6, label %7

6:                                                ; preds = %1
  br label %16

7:                                                ; preds = %1
  %8 = load ptr, ptr %2, align 8, !tbaa !3
  %9 = getelementptr inbounds nuw %struct._object, ptr %8, i32 0, i32 0
  %10 = getelementptr inbounds nuw %struct.anon, ptr %9, i32 0, i32 0
  %11 = load i32, ptr %10, align 8, !tbaa !28
  %12 = add i32 %11, -1
  store i32 %12, ptr %10, align 8, !tbaa !28
  %13 = icmp eq i32 %12, 0
  br i1 %13, label %14, label %16

14:                                               ; preds = %7
  %15 = load ptr, ptr %2, align 8, !tbaa !3
  call void @_Py_Dealloc(ptr noundef %15)
  br label %16

16:                                               ; preds = %6, %14, %7
  ret void
}

; Function Attrs: inlinehint nounwind uwtable
define internal i32 @is_main_interpreter() #3 {
  %1 = call ptr @PyInterpreterState_Get()
  %2 = call ptr @PyInterpreterState_Main()
  %3 = icmp eq ptr %1, %2
  %4 = zext i1 %3 to i32
  ret i32 %4
}

; Function Attrs: inlinehint nounwind uwtable
define internal i64 @Py_SIZE(ptr noundef %0) #3 {
  %2 = alloca ptr, align 8
  store ptr %0, ptr %2, align 8, !tbaa !3
  %3 = load ptr, ptr %2, align 8, !tbaa !3
  %4 = getelementptr inbounds nuw %struct.PyVarObject, ptr %3, i32 0, i32 1
  %5 = load i64, ptr %4, align 8, !tbaa !29
  ret i64 %5
}

; Function Attrs: nounwind uwtable
define internal ptr @syslog_syslog_impl(ptr noundef %0, i32 noundef %1, i32 noundef %2, ptr noundef %3) #0 {
  %5 = alloca ptr, align 8
  %6 = alloca ptr, align 8
  %7 = alloca i32, align 4
  %8 = alloca i32, align 4
  %9 = alloca ptr, align 8
  %10 = alloca ptr, align 8
  %11 = alloca i32, align 4
  %12 = alloca ptr, align 8
  %13 = alloca ptr, align 8
  store ptr %0, ptr %6, align 8, !tbaa !3
  store i32 %1, ptr %7, align 4, !tbaa !12
  store i32 %2, ptr %8, align 4, !tbaa !12
  store ptr %3, ptr %9, align 8, !tbaa !14
  %14 = load i32, ptr %8, align 4, !tbaa !12
  %15 = load ptr, ptr %9, align 8, !tbaa !14
  %16 = call i32 (ptr, ptr, ...) @PySys_Audit(ptr noundef @.str.21, ptr noundef @.str.22, i32 noundef %14, ptr noundef %15)
  %17 = icmp slt i32 %16, 0
  br i1 %17, label %18, label %19

18:                                               ; preds = %4
  store ptr null, ptr %5, align 8
  br label %46

19:                                               ; preds = %4
  %20 = load i8, ptr @S_log_open, align 1, !tbaa !28
  %21 = icmp ne i8 %20, 0
  br i1 %21, label %38, label %22

22:                                               ; preds = %19
  %23 = call i32 @is_main_interpreter()
  %24 = icmp ne i32 %23, 0
  br i1 %24, label %27, label %25

25:                                               ; preds = %22
  %26 = load ptr, ptr @PyExc_RuntimeError, align 8, !tbaa !3
  call void @PyErr_SetString(ptr noundef %26, ptr noundef @.str.23)
  store ptr null, ptr %5, align 8
  br label %46

27:                                               ; preds = %22
  call void @llvm.lifetime.start.p0(i64 8, ptr %10) #6
  %28 = load ptr, ptr %6, align 8, !tbaa !3
  %29 = call ptr @syslog_openlog_impl(ptr noundef %28, ptr noundef null, i64 noundef 0, i64 noundef 8)
  store ptr %29, ptr %10, align 8, !tbaa !3
  %30 = load ptr, ptr %10, align 8, !tbaa !3
  %31 = icmp eq ptr %30, null
  br i1 %31, label %32, label %33

32:                                               ; preds = %27
  store ptr null, ptr %5, align 8
  store i32 1, ptr %11, align 4
  br label %35

33:                                               ; preds = %27
  %34 = load ptr, ptr %10, align 8, !tbaa !3
  call void @Py_DECREF(ptr noundef %34)
  store i32 0, ptr %11, align 4
  br label %35

35:                                               ; preds = %33, %32
  call void @llvm.lifetime.end.p0(i64 8, ptr %10) #6
  %36 = load i32, ptr %11, align 4
  switch i32 %36, label %48 [
    i32 0, label %37
    i32 1, label %46
  ]

37:                                               ; preds = %35
  br label %38

38:                                               ; preds = %37, %19
  call void @llvm.lifetime.start.p0(i64 8, ptr %12) #6
  %39 = load ptr, ptr @S_ident_o, align 8, !tbaa !3
  %40 = call ptr @_Py_XNewRef(ptr noundef %39)
  store ptr %40, ptr %12, align 8, !tbaa !3
  call void @llvm.lifetime.start.p0(i64 8, ptr %13) #6
  %41 = call ptr @PyEval_SaveThread()
  store ptr %41, ptr %13, align 8, !tbaa !33
  %42 = load i32, ptr %8, align 4, !tbaa !12
  %43 = load ptr, ptr %9, align 8, !tbaa !14
  call void (i32, ptr, ...) @syslog(i32 noundef %42, ptr noundef @.str.24, ptr noundef %43)
  %44 = load ptr, ptr %13, align 8, !tbaa !33
  call void @PyEval_RestoreThread(ptr noundef %44)
  call void @llvm.lifetime.end.p0(i64 8, ptr %13) #6
  %45 = load ptr, ptr %12, align 8, !tbaa !3
  call void @Py_XDECREF(ptr noundef %45)
  store ptr @_Py_NoneStruct, ptr %5, align 8
  store i32 1, ptr %11, align 4
  call void @llvm.lifetime.end.p0(i64 8, ptr %12) #6
  br label %46

46:                                               ; preds = %38, %35, %25, %18
  %47 = load ptr, ptr %5, align 8
  ret ptr %47

48:                                               ; preds = %35
  unreachable
}

; Function Attrs: inlinehint nounwind uwtable
define internal i64 @PyTuple_GET_SIZE(ptr noundef %0) #3 {
  %2 = alloca ptr, align 8
  %3 = alloca ptr, align 8
  store ptr %0, ptr %2, align 8, !tbaa !3
  call void @llvm.lifetime.start.p0(i64 8, ptr %3) #6
  %4 = load ptr, ptr %2, align 8, !tbaa !3
  store ptr %4, ptr %3, align 8, !tbaa !16
  %5 = load ptr, ptr %3, align 8, !tbaa !16
  %6 = call i64 @Py_SIZE(ptr noundef %5)
  call void @llvm.lifetime.end.p0(i64 8, ptr %3) #6
  ret i64 %6
}

; Function Attrs: nounwind uwtable
define internal ptr @syslog_syslog(ptr noundef %0, ptr noundef %1) #0 {
  %3 = alloca ptr, align 8
  %4 = alloca ptr, align 8
  %5 = alloca ptr, align 8
  %6 = alloca i32, align 4
  %7 = alloca i32, align 4
  %8 = alloca ptr, align 8
  store ptr %0, ptr %3, align 8, !tbaa !3
  store ptr %1, ptr %4, align 8, !tbaa !3
  call void @llvm.lifetime.start.p0(i64 8, ptr %5) #6
  store ptr null, ptr %5, align 8, !tbaa !3
  call void @llvm.lifetime.start.p0(i64 4, ptr %6) #6
  store i32 0, ptr %6, align 4, !tbaa !12
  call void @llvm.lifetime.start.p0(i64 4, ptr %7) #6
  store i32 6, ptr %7, align 4, !tbaa !12
  call void @llvm.lifetime.start.p0(i64 8, ptr %8) #6
  %9 = load ptr, ptr %4, align 8, !tbaa !3
  %10 = call i64 @PyTuple_GET_SIZE(ptr noundef %9)
  switch i64 %10, label %23 [
    i64 1, label %11
    i64 2, label %17
  ]

11:                                               ; preds = %2
  %12 = load ptr, ptr %4, align 8, !tbaa !3
  %13 = call i32 (ptr, ptr, ...) @PyArg_ParseTuple(ptr noundef %12, ptr noundef @.str.18, ptr noundef %8)
  %14 = icmp ne i32 %13, 0
  br i1 %14, label %16, label %15

15:                                               ; preds = %11
  br label %31

16:                                               ; preds = %11
  br label %25

17:                                               ; preds = %2
  %18 = load ptr, ptr %4, align 8, !tbaa !3
  %19 = call i32 (ptr, ptr, ...) @PyArg_ParseTuple(ptr noundef %18, ptr noundef @.str.19, ptr noundef %7, ptr noundef %8)
  %20 = icmp ne i32 %19, 0
  br i1 %20, label %22, label %21

21:                                               ; preds = %17
  br label %31

22:                                               ; preds = %17
  store i32 1, ptr %6, align 4, !tbaa !12
  br label %25

23:                                               ; preds = %2
  %24 = load ptr, ptr @PyExc_TypeError, align 8, !tbaa !3
  call void @PyErr_SetString(ptr noundef %24, ptr noundef @.str.20)
  br label %31

25:                                               ; preds = %22, %16
  %26 = load ptr, ptr %3, align 8, !tbaa !3
  %27 = load i32, ptr %6, align 4, !tbaa !12
  %28 = load i32, ptr %7, align 4, !tbaa !12
  %29 = load ptr, ptr %8, align 8, !tbaa !14
  %30 = call ptr @syslog_syslog_impl(ptr noundef %26, i32 noundef %27, i32 noundef %28, ptr noundef %29)
  store ptr %30, ptr %5, align 8, !tbaa !3
  br label %31

31:                                               ; preds = %25, %23, %21, %15
  %32 = load ptr, ptr %5, align 8, !tbaa !3
  call void @llvm.lifetime.end.p0(i64 8, ptr %8) #6
  call void @llvm.lifetime.end.p0(i64 4, ptr %7) #6
  call void @llvm.lifetime.end.p0(i64 4, ptr %6) #6
  call void @llvm.lifetime.end.p0(i64 8, ptr %5) #6
  ret ptr %32
}