; Function Attrs: nounwind uwtable
define internal noundef ptr @syslog_syslog(ptr readnone captures(none) %0, ptr noundef %1) #0 {
  %3 = alloca i32, align 4
  %4 = alloca ptr, align 8
  call void @llvm.lifetime.start.p0(i64 4, ptr nonnull %3) #5
  store i32 6, ptr %3, align 4, !tbaa !23
  call void @llvm.lifetime.start.p0(i64 8, ptr nonnull %4) #5
  %5 = getelementptr i8, ptr %1, i64 16
  %.val = load i64, ptr %5, align 8, !tbaa !3
  switch i64 %.val, label %10 [
    i64 1, label %6
    i64 2, label %8
  ]

6:                                                ; preds = %2
  %7 = call i32 (ptr, ptr, ...) @PyArg_ParseTuple(ptr noundef nonnull %1, ptr noundef nonnull @.str.18, ptr noundef nonnull %4) #5
  %.not6 = icmp eq i32 %7, 0
  br i1 %.not6, label %syslog_syslog_impl.exit, label %12

8:                                                ; preds = %2
  %9 = call i32 (ptr, ptr, ...) @PyArg_ParseTuple(ptr noundef nonnull %1, ptr noundef nonnull @.str.19, ptr noundef nonnull %3, ptr noundef nonnull %4) #5
  %.not = icmp eq i32 %9, 0
  br i1 %.not, label %syslog_syslog_impl.exit, label %._crit_edge

._crit_edge:                                      ; preds = %8
  %.pre = load i32, ptr %3, align 4, !tbaa !23
  br label %12

10:                                               ; preds = %2
  %11 = load ptr, ptr @PyExc_TypeError, align 8, !tbaa !11
  tail call void @PyErr_SetString(ptr noundef %11, ptr noundef nonnull @.str.20) #5
  br label %syslog_syslog_impl.exit

12:                                               ; preds = %._crit_edge, %6
  %13 = phi i32 [ %.pre, %._crit_edge ], [ 6, %6 ]
  %14 = load ptr, ptr %4, align 8, !tbaa !24
  %15 = call i32 (ptr, ptr, ...) @PySys_Audit(ptr noundef nonnull @.str.21, ptr noundef nonnull @.str.22, i32 noundef %13, ptr noundef %14) #5
  %16 = icmp slt i32 %15, 0
  br i1 %16, label %syslog_syslog_impl.exit, label %17

17:                                               ; preds = %12
  %.b.i = load i1, ptr @S_log_open, align 1
  br i1 %.b.i, label %Py_DECREF.exit.thread.i, label %18

18:                                               ; preds = %17
  %19 = call ptr @PyInterpreterState_Get() #5
  %20 = call ptr @PyInterpreterState_Main() #5
  %.not.i = icmp eq ptr %19, %20
  br i1 %.not.i, label %23, label %21

21:                                               ; preds = %18
  %22 = load ptr, ptr @PyExc_RuntimeError, align 8, !tbaa !11
  call void @PyErr_SetString(ptr noundef %22, ptr noundef nonnull @.str.23) #5
  br label %syslog_syslog_impl.exit

23:                                               ; preds = %18
  %24 = call fastcc ptr @syslog_openlog_impl(ptr noundef null, i64 noundef 0, i64 noundef 8)
  %25 = icmp eq ptr %24, null
  br i1 %25, label %syslog_syslog_impl.exit, label %26

26:                                               ; preds = %23
  %27 = load i32, ptr %24, align 8, !tbaa !22
  %.not.i.i = icmp sgt i32 %27, -1
  br i1 %.not.i.i, label %28, label %Py_DECREF.exit.thread.i

28:                                               ; preds = %26
  %29 = add nsw i32 %27, -1
  store i32 %29, ptr %24, align 8, !tbaa !22
  %30 = icmp eq i32 %29, 0
  br i1 %30, label %31, label %Py_DECREF.exit.thread.i

31:                                               ; preds = %28
  call void @_Py_Dealloc(ptr noundef nonnull %24) #5
  br label %Py_DECREF.exit.thread.i

Py_DECREF.exit.thread.i:                          ; preds = %31, %28, %26, %17
  %32 = load ptr, ptr @S_ident_o, align 8, !tbaa !11
  %.not.i.i.i = icmp eq ptr %32, null
  br i1 %.not.i.i.i, label %Py_DECREF.exit.critedge.i, label %33

33:                                               ; preds = %Py_DECREF.exit.thread.i
  %34 = load i32, ptr %32, align 8, !tbaa !22
  %35 = icmp slt i32 %34, 0
  br i1 %35, label %_Py_XNewRef.exit.i, label %36

36:                                               ; preds = %33
  %37 = add nuw i32 %34, 1
  store i32 %37, ptr %32, align 8, !tbaa !22
  br label %_Py_XNewRef.exit.i

_Py_XNewRef.exit.i:                               ; preds = %36, %33
  %38 = call ptr @PyEval_SaveThread() #5
  call void (i32, ptr, ...) @syslog(i32 noundef %13, ptr noundef nonnull @.str.24, ptr noundef %14) #5
  call void @PyEval_RestoreThread(ptr noundef %38) #5
  %39 = load i32, ptr %32, align 8, !tbaa !22
  %.not.i.i13.i = icmp sgt i32 %39, -1
  br i1 %.not.i.i13.i, label %40, label %syslog_syslog_impl.exit

40:                                               ; preds = %_Py_XNewRef.exit.i
  %41 = add nsw i32 %39, -1
  store i32 %41, ptr %32, align 8, !tbaa !22
  %42 = icmp eq i32 %41, 0
  br i1 %42, label %43, label %syslog_syslog_impl.exit

43:                                               ; preds = %40
  call void @_Py_Dealloc(ptr noundef nonnull %32) #5
  br label %syslog_syslog_impl.exit

Py_DECREF.exit.critedge.i:                        ; preds = %Py_DECREF.exit.thread.i
  %44 = call ptr @PyEval_SaveThread() #5
  call void (i32, ptr, ...) @syslog(i32 noundef %13, ptr noundef nonnull @.str.24, ptr noundef %14) #5
  call void @PyEval_RestoreThread(ptr noundef %44) #5
  br label %syslog_syslog_impl.exit

syslog_syslog_impl.exit:                          ; preds = %Py_DECREF.exit.critedge.i, %43, %40, %_Py_XNewRef.exit.i, %23, %21, %12, %8, %6, %10
  %.05 = phi ptr [ null, %10 ], [ null, %8 ], [ null, %6 ], [ null, %21 ], [ null, %12 ], [ null, %23 ], [ @_Py_NoneStruct, %_Py_XNewRef.exit.i ], [ @_Py_NoneStruct, %40 ], [ @_Py_NoneStruct, %43 ], [ @_Py_NoneStruct, %Py_DECREF.exit.critedge.i ]
  call void @llvm.lifetime.end.p0(i64 8, ptr nonnull %4) #5
  call void @llvm.lifetime.end.p0(i64 4, ptr nonnull %3) #5
  ret ptr %.05
}